; Function Attrs: nounwind uwtable
define noalias ptr @l_Array_foldlMUnsafe_fold___at___private_Lean_Meta_Tactic_Grind_EMatchTheorem_0__Lean_Meta_Grind_addGrindEqAttr___spec__1___boxed(ptr noundef %0, ptr noundef %1, ptr noundef %2, ptr noundef %3, ptr noundef %4, ptr noundef %5, ptr noundef %6, ptr noundef %7, ptr noundef %8, ptr noundef %9) local_unnamed_addr #1 {
  %11 = ptrtoint ptr %0 to i64
  %12 = lshr i64 %11, 1
  %13 = trunc i64 %12 to i8
  %14 = and i64 %11, 1
  %.not = icmp eq i64 %14, 0
  br i1 %.not, label %15, label %lean_dec.exit25

15:                                               ; preds = %10
  %16 = load i32, ptr %0, align 4, !tbaa !4
  %17 = icmp sgt i32 %16, 1
  br i1 %17, label %18, label %20, !prof !11

18:                                               ; preds = %15
  %19 = add nsw i32 %16, -1
  store i32 %19, ptr %0, align 4, !tbaa !4
  br label %lean_dec.exit25

20:                                               ; preds = %15
  %.not.i = icmp eq i32 %16, 0
  br i1 %.not.i, label %lean_dec.exit25, label %21

21:                                               ; preds = %20
  tail call void @lean_dec_ref_cold(ptr noundef nonnull %0) #9
  br label %lean_dec.exit25

lean_dec.exit25:                                  ; preds = %21, %20, %18, %10
  %22 = getelementptr i8, ptr %2, i64 8
  %.val38 = load i64, ptr %22, align 8, !tbaa !12
  %23 = ptrtoint ptr %2 to i64
  %24 = and i64 %23, 1
  %.not39 = icmp eq i64 %24, 0
  br i1 %.not39, label %25, label %lean_dec.exit24

25:                                               ; preds = %lean_dec.exit25
  %26 = load i32, ptr %2, align 4, !tbaa !4
  %27 = icmp sgt i32 %26, 1
  br i1 %27, label %28, label %30, !prof !11

28:                                               ; preds = %25
  %29 = add nsw i32 %26, -1
  store i32 %29, ptr %2, align 4, !tbaa !4
  br label %lean_dec.exit24

30:                                               ; preds = %25
  %.not.i26 = icmp eq i32 %26, 0
  br i1 %.not.i26, label %lean_dec.exit24, label %31

31:                                               ; preds = %30
  tail call void @lean_dec_ref_cold(ptr noundef nonnull %2) #9
  br label %lean_dec.exit24

lean_dec.exit24:                                  ; preds = %31, %30, %28, %lean_dec.exit25
  %32 = getelementptr i8, ptr %3, i64 8
  %.val = load i64, ptr %32, align 8, !tbaa !12
  %33 = ptrtoint ptr %3 to i64
  %34 = and i64 %33, 1
  %.not40 = icmp eq i64 %34, 0
  br i1 %.not40, label %35, label %lean_dec.exit23

35:                                               ; preds = %lean_dec.exit24
  %36 = load i32, ptr %3, align 4, !tbaa !4
  %37 = icmp sgt i32 %36, 1
  br i1 %37, label %38, label %40, !prof !11

38:                                               ; preds = %35
  %39 = add nsw i32 %36, -1
  store i32 %39, ptr %3, align 4, !tbaa !4
  br label %lean_dec.exit23

40:                                               ; preds = %35
  %.not.i28 = icmp eq i32 %36, 0
  br i1 %.not.i28, label %lean_dec.exit23, label %41

41:                                               ; preds = %40
  tail call void @lean_dec_ref_cold(ptr noundef nonnull %3) #9
  br label %lean_dec.exit23

lean_dec.exit23:                                  ; preds = %41, %40, %38, %lean_dec.exit24
  %42 = tail call ptr @l_Array_foldlMUnsafe_fold___at___private_Lean_Meta_Tactic_Grind_EMatchTheorem_0__Lean_Meta_Grind_addGrindEqAttr___spec__1(i8 noundef zeroext %13, ptr noundef %1, i64 noundef %.val38, i64 noundef %.val, ptr noundef %4, ptr poison, ptr noundef %6, ptr noundef %7, ptr noundef %8, ptr noundef %9)
  %43 = ptrtoint ptr %8 to i64
  %44 = and i64 %43, 1
  %.not41 = icmp eq i64 %44, 0
  br i1 %.not41, label %45, label %lean_dec.exit22

45:                                               ; preds = %lean_dec.exit23
  %46 = load i32, ptr %8, align 4, !tbaa !4
  %47 = icmp sgt i32 %46, 1
  br i1 %47, label %48, label %50, !prof !11

48:                                               ; preds = %45
  %49 = add nsw i32 %46, -1
  store i32 %49, ptr %8, align 4, !tbaa !4
  br label %lean_dec.exit22

50:                                               ; preds = %45
  %.not.i30 = icmp eq i32 %46, 0
  br i1 %.not.i30, label %lean_dec.exit22, label %51

51:                                               ; preds = %50
  tail call void @lean_dec_ref_cold(ptr noundef nonnull %8) #9
  br label %lean_dec.exit22

lean_dec.exit22:                                  ; preds = %51, %50, %48, %lean_dec.exit23
  %52 = ptrtoint ptr %6 to i64
  %53 = and i64 %52, 1
  %.not42 = icmp eq i64 %53, 0
  br i1 %.not42, label %54, label %lean_dec.exit21

54:                                               ; preds = %lean_dec.exit22
  %55 = load i32, ptr %6, align 4, !tbaa !4
  %56 = icmp sgt i32 %55, 1
  br i1 %56, label %57, label %59, !prof !11

57:                                               ; preds = %54
  %58 = add nsw i32 %55, -1
  store i32 %58, ptr %6, align 4, !tbaa !4
  br label %lean_dec.exit21

59:                                               ; preds = %54
  %.not.i32 = icmp eq i32 %55, 0
  br i1 %.not.i32, label %lean_dec.exit21, label %60

60:                                               ; preds = %59
  tail call void @lean_dec_ref_cold(ptr noundef nonnull %6) #9
  br label %lean_dec.exit21

lean_dec.exit21:                                  ; preds = %60, %59, %57, %lean_dec.exit22
  %61 = ptrtoint ptr %5 to i64
  %62 = and i64 %61, 1
  %.not43 = icmp eq i64 %62, 0
  br i1 %.not43, label %63, label %lean_dec.exit20

63:                                               ; preds = %lean_dec.exit21
  %64 = load i32, ptr %5, align 4, !tbaa !4
  %65 = icmp sgt i32 %64, 1
  br i1 %65, label %66, label %68, !prof !11

66:                                               ; preds = %63
  %67 = add nsw i32 %64, -1
  store i32 %67, ptr %5, align 4, !tbaa !4
  br label %lean_dec.exit20

68:                                               ; preds = %63
  %.not.i34 = icmp eq i32 %64, 0
  br i1 %.not.i34, label %lean_dec.exit20, label %69

69:                                               ; preds = %68
  tail call void @lean_dec_ref_cold(ptr noundef nonnull %5) #9
  br label %lean_dec.exit20

lean_dec.exit20:                                  ; preds = %69, %68, %66, %lean_dec.exit21
  %70 = ptrtoint ptr %1 to i64
  %71 = and i64 %70, 1
  %.not44 = icmp eq i64 %71, 0
  br i1 %.not44, label %72, label %lean_dec.exit

72:                                               ; preds = %lean_dec.exit20
  %73 = load i32, ptr %1, align 4, !tbaa !4
  %74 = icmp sgt i32 %73, 1
  br i1 %74, label %75, label %77, !prof !11

75:                                               ; preds = %72
  %76 = add nsw i32 %73, -1
  store i32 %76, ptr %1, align 4, !tbaa !4
  br label %lean_dec.exit

77:                                               ; preds = %72
  %.not.i36 = icmp eq i32 %73, 0
  br i1 %.not.i36, label %lean_dec.exit, label %78

78:                                               ; preds = %77
  tail call void @lean_dec_ref_cold(ptr noundef nonnull %1) #9
  br label %lean_dec.exit

lean_dec.exit:                                    ; preds = %78, %77, %75, %lean_dec.exit20
  ret ptr %42
}